target datalayout = "e-m:e-p270:32:32-p271:32:32-p272:64:64-i64:64-i128:128-f80:128-n8:16:32:64-S128"
target triple = "x86_64-pc-linux-gnu"

%struct._address = type { i32, i32, ptr, ptr }
%struct._endpoint_item_t = type { ptr, %struct._address, i32, i32, i64, i64, i64, i64, i64, i64, i64, i64, i32, i32 }

@.str.1261 = private unnamed_addr constant [15 x i8] c"bluetooth.addr\00", align 1
@.str.1264 = private unnamed_addr constant [19 x i8] c"bluetooth.addr_str\00", align 1
@.str.4526 = private unnamed_addr constant [8 x i8] c"INVALID\00", align 1

; Function Attrs: nounwind uwtable
define internal ptr @bluetooth_endpoint_get_filter_type(ptr noundef %0, i32 noundef %1) #1 {
  %3 = alloca ptr, align 8
  %4 = alloca ptr, align 8
  %5 = alloca i32, align 4
  store ptr %0, ptr %4, align 8
  store i32 %1, ptr %5, align 4
  %6 = load i32, ptr %5, align 4
  %7 = icmp eq i32 %6, 2
  br i1 %7, label %8, label %24

8:                                                ; preds = %2
  %9 = load ptr, ptr %4, align 8
  %10 = getelementptr inbounds %struct._endpoint_item_t, ptr %9, i32 0, i32 1
  %11 = getelementptr inbounds %struct._address, ptr %10, i32 0, i32 0
  %12 = load i32, ptr %11, align 8
  %13 = icmp eq i32 %12, 1
  br i1 %13, label %14, label %15

14:                                               ; preds = %8
  store ptr @.str.1261, ptr %3, align 8
  br label %25

15:                                               ; preds = %8
  %16 = load ptr, ptr %4, align 8
  %17 = getelementptr inbounds %struct._endpoint_item_t, ptr %16, i32 0, i32 1
  %18 = getelementptr inbounds %struct._address, ptr %17, i32 0, i32 0
  %19 = load i32, ptr %18, align 8
  %20 = icmp eq i32 %19, 7
  br i1 %20, label %21, label %22

21:                                               ; preds = %15
  store ptr @.str.1264, ptr %3, align 8
  br label %25

22:                                               ; preds = %15
  br label %23

23:                                               ; preds = %22
  br label %24

24:                                               ; preds = %23, %2
  store ptr @.str.4526, ptr %3, align 8
  br label %25

25:                                               ; preds = %24, %21, %14
  %26 = load ptr, ptr %3, align 8
  ret ptr %26
}