; Function Attrs: mustprogress nofree norecurse nosync nounwind willreturn memory(argmem: read) uwtable
define internal nonnull ptr @bluetooth_endpoint_get_filter_type(ptr noundef readonly captures(none) %0, i32 noundef %1) #8 {
  %3 = icmp eq i32 %1, 2
  br i1 %3, label %4, label %7

4:                                                ; preds = %2
  %5 = getelementptr inbounds nuw i8, ptr %0, i64 8
  %6 = load i32, ptr %5, align 8
  %switch.selectcmp = icmp eq i32 %6, 7
  %switch.select = select i1 %switch.selectcmp, ptr @.str.1264, ptr @.str.4526
  %switch.selectcmp4 = icmp eq i32 %6, 1
  %switch.select5 = select i1 %switch.selectcmp4, ptr @.str.1261, ptr %switch.select
  br label %7

7:                                                ; preds = %2, %4
  %.0 = phi ptr [ %switch.select5, %4 ], [ @.str.4526, %2 ]
  ret ptr %.0
}